target datalayout = "e-m:e-p270:32:32-p271:32:32-p272:64:64-i64:64-i128:128-f80:128-n8:16:32:64-S128"
target triple = "x86_64-unknown-linux-gnu"

%"class.std::shared_ptr" = type { %"class.std::__shared_ptr" }
%"class.std::__shared_ptr" = type { ptr, %"class.std::__shared_count" }
%"class.std::__shared_count" = type { ptr }
%"class.arrow::Array" = type { ptr, %"class.std::shared_ptr", ptr }
%"class.std::shared_ptr.0" = type { %"class.std::__shared_ptr.1" }
%"class.std::__shared_ptr.1" = type { ptr, %"class.std::__shared_count" }
%"class.arrow::VarLengthListLikeArray" = type { %"class.arrow::Array", ptr, %"class.std::shared_ptr.0", ptr }
%"class.arrow::MapArray" = type { %"class.arrow::ListArray", ptr, %"class.std::shared_ptr.0", %"class.std::shared_ptr.0" }
%"class.arrow::ListArray" = type { %"class.arrow::BaseListArray" }
%"class.arrow::BaseListArray" = type { %"class.arrow::VarLengthListLikeArray" }

@_ZTVN5arrow9ListArrayE = linkonce_odr unnamed_addr constant { [5 x ptr] } { [5 x ptr] [ptr null, ptr @_ZTIN5arrow9ListArrayE, ptr @_ZN5arrow9ListArrayD2Ev, ptr @_ZN5arrow9ListArrayD0Ev, ptr @_ZNK5arrow13BaseListArrayINS_8ListTypeEE12value_lengthEl] }, comdat, align 8
@_ZTVN5arrow8MapArrayE = linkonce_odr unnamed_addr constant { [5 x ptr] } { [5 x ptr] [ptr null, ptr @_ZTIN5arrow8MapArrayE, ptr @_ZN5arrow8MapArrayD2Ev, ptr @_ZN5arrow8MapArrayD0Ev, ptr @_ZNK5arrow13BaseListArrayINS_8ListTypeEE12value_lengthEl] }, comdat, align 8
@_ZTVN5arrow5ArrayE = linkonce_odr unnamed_addr constant { [4 x ptr] } { [4 x ptr] [ptr null, ptr @_ZTIN5arrow5ArrayE, ptr @_ZN5arrow5ArrayD2Ev, ptr @_ZN5arrow5ArrayD0Ev] }, comdat, align 8

; Function Attrs: mustprogress nounwind uwtable
define linkonce_odr void @_ZNSt12__shared_ptrIN5arrow9ArrayDataELN9__gnu_cxx12_Lock_policyE2EEC2Ev(ptr noundef nonnull align 8 dereferenceable(16) %this) unnamed_addr #1 comdat align 2 {
entry:
  %this.addr = alloca ptr, align 8
  store ptr %this, ptr %this.addr, align 8
  %this1 = load ptr, ptr %this.addr, align 8
  %_M_ptr = getelementptr inbounds %"class.std::__shared_ptr", ptr %this1, i32 0, i32 0
  store ptr null, ptr %_M_ptr, align 8
  %_M_refcount = getelementptr inbounds %"class.std::__shared_ptr", ptr %this1, i32 0, i32 1
  call void @_ZNSt14__shared_countILN9__gnu_cxx12_Lock_policyE2EEC2Ev(ptr noundef nonnull align 8 dereferenceable(8) %_M_refcount) #12
  ret void
}

; Function Attrs: mustprogress nounwind uwtable
define linkonce_odr void @_ZNSt10shared_ptrIN5arrow9ArrayDataEEC2Ev(ptr noundef nonnull align 8 dereferenceable(16) %this) unnamed_addr #1 comdat align 2 {
entry:
  %this.addr = alloca ptr, align 8
  store ptr %this, ptr %this.addr, align 8
  %this1 = load ptr, ptr %this.addr, align 8
  call void @_ZNSt12__shared_ptrIN5arrow9ArrayDataELN9__gnu_cxx12_Lock_policyE2EEC2Ev(ptr noundef nonnull align 8 dereferenceable(16) %this1) #12
  ret void
}

; Function Attrs: mustprogress nounwind uwtable
define linkonce_odr void @_ZN5arrow5ArrayC2Ev(ptr noundef nonnull align 8 dereferenceable(32) %this) unnamed_addr #1 comdat align 2 {
entry:
  %this.addr = alloca ptr, align 8
  store ptr %this, ptr %this.addr, align 8
  %this1 = load ptr, ptr %this.addr, align 8
  store ptr getelementptr inbounds ({ [4 x ptr] }, ptr @_ZTVN5arrow5ArrayE, i32 0, i32 0, i32 2), ptr %this1, align 8
  %data_ = getelementptr inbounds %"class.arrow::Array", ptr %this1, i32 0, i32 1
  call void @_ZNSt10shared_ptrIN5arrow9ArrayDataEEC2Ev(ptr noundef nonnull align 8 dereferenceable(16) %data_) #12
  %null_bitmap_data_ = getelementptr inbounds %"class.arrow::Array", ptr %this1, i32 0, i32 2
  store ptr null, ptr %null_bitmap_data_, align 8
  ret void
}

; Function Attrs: mustprogress nounwind uwtable
define linkonce_odr void @_ZNSt14__shared_countILN9__gnu_cxx12_Lock_policyE2EEC2Ev(ptr noundef nonnull align 8 dereferenceable(8) %this) unnamed_addr #1 comdat align 2 {
entry:
  %this.addr = alloca ptr, align 8
  store ptr %this, ptr %this.addr, align 8
  %this1 = load ptr, ptr %this.addr, align 8
  %_M_pi = getelementptr inbounds %"class.std::__shared_count", ptr %this1, i32 0, i32 0
  store ptr null, ptr %_M_pi, align 8
  ret void
}

; Function Attrs: mustprogress nounwind uwtable
define linkonce_odr void @_ZN5arrow22VarLengthListLikeArrayINS_8ListTypeEEC2Ev(ptr noundef nonnull align 8 dereferenceable(64) %this) unnamed_addr #1 comdat align 2 {
entry:
  %this.addr = alloca ptr, align 8
  store ptr %this, ptr %this.addr, align 8
  %this1 = load ptr, ptr %this.addr, align 8
  call void @_ZN5arrow5ArrayC2Ev(ptr noundef nonnull align 8 dereferenceable(32) %this1) #12
  store ptr getelementptr inbounds ({ [5 x ptr] }, ptr @_ZTVN5arrow22VarLengthListLikeArrayINS_8ListTypeEEE, i32 0, i32 0, i32 2), ptr %this1, align 8
  %list_type_ = getelementptr inbounds %"class.arrow::VarLengthListLikeArray", ptr %this1, i32 0, i32 1
  store ptr null, ptr %list_type_, align 8
  %values_ = getelementptr inbounds %"class.arrow::VarLengthListLikeArray", ptr %this1, i32 0, i32 2
  call void @_ZNSt10shared_ptrIN5arrow5ArrayEEC2Ev(ptr noundef nonnull align 8 dereferenceable(16) %values_) #12
  %raw_value_offsets_ = getelementptr inbounds %"class.arrow::VarLengthListLikeArray", ptr %this1, i32 0, i32 3
  store ptr null, ptr %raw_value_offsets_, align 8
  ret void
}

; Function Attrs: mustprogress nounwind uwtable
define linkonce_odr void @_ZN5arrow13BaseListArrayINS_8ListTypeEED2Ev(ptr noundef nonnull align 8 dereferenceable(64) %this) unnamed_addr #1 comdat align 2 {
entry:
  %this.addr = alloca ptr, align 8
  store ptr %this, ptr %this.addr, align 8
  %this1 = load ptr, ptr %this.addr, align 8
  call void @_ZN5arrow22VarLengthListLikeArrayINS_8ListTypeEED2Ev(ptr noundef nonnull align 8 dereferenceable(64) %this1) #12
  ret void
}

; Function Attrs: mustprogress nounwind uwtable
define linkonce_odr void @_ZNSt12__shared_ptrIN5arrow5ArrayELN9__gnu_cxx12_Lock_policyE2EEC2Ev(ptr noundef nonnull align 8 dereferenceable(16) %this) unnamed_addr #1 comdat align 2 {
entry:
  %this.addr = alloca ptr, align 8
  store ptr %this, ptr %this.addr, align 8
  %this1 = load ptr, ptr %this.addr, align 8
  %_M_ptr = getelementptr inbounds %"class.std::__shared_ptr.1", ptr %this1, i32 0, i32 0
  store ptr null, ptr %_M_ptr, align 8
  %_M_refcount = getelementptr inbounds %"class.std::__shared_ptr.1", ptr %this1, i32 0, i32 1
  call void @_ZNSt14__shared_countILN9__gnu_cxx12_Lock_policyE2EEC2Ev(ptr noundef nonnull align 8 dereferenceable(8) %_M_refcount) #12
  ret void
}

; Function Attrs: mustprogress nounwind uwtable
define linkonce_odr void @_ZN5arrow13BaseListArrayINS_8ListTypeEEC2Ev(ptr noundef nonnull align 8 dereferenceable(64) %this) unnamed_addr #1 comdat align 2 {
entry:
  %this.addr = alloca ptr, align 8
  store ptr %this, ptr %this.addr, align 8
  %this1 = load ptr, ptr %this.addr, align 8
  call void @_ZN5arrow22VarLengthListLikeArrayINS_8ListTypeEEC2Ev(ptr noundef nonnull align 8 dereferenceable(64) %this1) #12
  store ptr getelementptr inbounds ({ [5 x ptr] }, ptr @_ZTVN5arrow13BaseListArrayINS_8ListTypeEEE, i32 0, i32 0, i32 2), ptr %this1, align 8
  ret void
}

; Function Attrs: mustprogress nounwind uwtable
define linkonce_odr void @_ZN5arrow9ListArrayD2Ev(ptr noundef nonnull align 8 dereferenceable(64) %this) unnamed_addr #1 comdat align 2 {
entry:
  %this.addr = alloca ptr, align 8
  store ptr %this, ptr %this.addr, align 8
  %this1 = load ptr, ptr %this.addr, align 8
  call void @_ZN5arrow13BaseListArrayINS_8ListTypeEED2Ev(ptr noundef nonnull align 8 dereferenceable(64) %this1) #12
  ret void
}

; Function Attrs: mustprogress nounwind uwtable
define linkonce_odr void @_ZNSt10shared_ptrIN5arrow5ArrayEEC2Ev(ptr noundef nonnull align 8 dereferenceable(16) %this) unnamed_addr #1 comdat align 2 {
entry:
  %this.addr = alloca ptr, align 8
  store ptr %this, ptr %this.addr, align 8
  %this1 = load ptr, ptr %this.addr, align 8
  call void @_ZNSt12__shared_ptrIN5arrow5ArrayELN9__gnu_cxx12_Lock_policyE2EEC2Ev(ptr noundef nonnull align 8 dereferenceable(16) %this1) #12
  ret void
}

; Function Attrs: mustprogress nounwind uwtable
define linkonce_odr void @_ZN5arrow9ListArrayC2Ev(ptr noundef nonnull align 8 dereferenceable(64) %this) unnamed_addr #1 comdat align 2 {
entry:
  %this.addr = alloca ptr, align 8
  store ptr %this, ptr %this.addr, align 8
  %this1 = load ptr, ptr %this.addr, align 8
  call void @_ZN5arrow13BaseListArrayINS_8ListTypeEEC2Ev(ptr noundef nonnull align 8 dereferenceable(64) %this1) #12
  store ptr getelementptr inbounds ({ [5 x ptr] }, ptr @_ZTVN5arrow9ListArrayE, i32 0, i32 0, i32 2), ptr %this1, align 8
  ret void
}

; Function Attrs: mustprogress uwtable
define void @_ZN5arrow8MapArrayC2ERKSt10shared_ptrINS_9ArrayDataEE(ptr noundef nonnull align 8 dereferenceable(104) %this, ptr noundef nonnull align 8 dereferenceable(16) %data) unnamed_addr #0 align 2 personality ptr @__gxx_personality_v0 {
entry:
  %this.addr = alloca ptr, align 8
  %data.addr = alloca ptr, align 8
  %exn.slot = alloca ptr, align 8
  %ehselector.slot = alloca i32, align 4
  store ptr %this, ptr %this.addr, align 8
  store ptr %data, ptr %data.addr, align 8
  %this1 = load ptr, ptr %this.addr, align 8
  call void @_ZN5arrow9ListArrayC2Ev(ptr noundef nonnull align 8 dereferenceable(64) %this1) #12
  store ptr getelementptr inbounds ({ [5 x ptr] }, ptr @_ZTVN5arrow8MapArrayE, i32 0, i32 0, i32 2), ptr %this1, align 8
  %keys_ = getelementptr inbounds %"class.arrow::MapArray", ptr %this1, i32 0, i32 2
  call void @_ZNSt10shared_ptrIN5arrow5ArrayEEC2Ev(ptr noundef nonnull align 8 dereferenceable(16) %keys_) #12
  %items_ = getelementptr inbounds %"class.arrow::MapArray", ptr %this1, i32 0, i32 3
  call void @_ZNSt10shared_ptrIN5arrow5ArrayEEC2Ev(ptr noundef nonnull align 8 dereferenceable(16) %items_) #12
  %0 = load ptr, ptr %data.addr, align 8
  invoke void @_ZN5arrow8MapArray7SetDataERKSt10shared_ptrINS_9ArrayDataEE(ptr noundef nonnull align 8 dereferenceable(104) %this1, ptr noundef nonnull align 8 dereferenceable(16) %0)
          to label %invoke.cont unwind label %lpad

invoke.cont:                                      ; preds = %entry
  ret void

lpad:                                             ; preds = %entry
  %1 = landingpad { ptr, i32 }
          cleanup
  %2 = extractvalue { ptr, i32 } %1, 0
  store ptr %2, ptr %exn.slot, align 8
  %3 = extractvalue { ptr, i32 } %1, 1
  store i32 %3, ptr %ehselector.slot, align 4
  call void @_ZNSt10shared_ptrIN5arrow5ArrayEED2Ev(ptr noundef nonnull align 8 dereferenceable(16) %items_) #12
  call void @_ZNSt10shared_ptrIN5arrow5ArrayEED2Ev(ptr noundef nonnull align 8 dereferenceable(16) %keys_) #12
  call void @_ZN5arrow9ListArrayD2Ev(ptr noundef nonnull align 8 dereferenceable(64) %this1) #12
  br label %eh.resume

eh.resume:                                        ; preds = %lpad
  %exn = load ptr, ptr %exn.slot, align 8
  %sel = load i32, ptr %ehselector.slot, align 4
  %lpad.val = insertvalue { ptr, i32 } poison, ptr %exn, 0
  %lpad.val2 = insertvalue { ptr, i32 } %lpad.val, i32 %sel, 1
  resume { ptr, i32 } %lpad.val2
}