; Function Attrs: mustprogress uwtable
define void @_ZN5arrow8MapArrayC2ERKSt10shared_ptrINS_9ArrayDataEE(ptr noundef nonnull align 8 dereferenceable(104) %this, ptr noundef nonnull align 8 dereferenceable(16) %data) unnamed_addr #0 align 2 personality ptr @__gxx_personality_v0 {
entry:
  %data_.i.i.i.i = getelementptr inbounds i8, ptr %this, i64 8
  tail call void @llvm.memset.p0.i64(ptr noundef nonnull align 8 dereferenceable(56) %data_.i.i.i.i, i8 0, i64 56, i1 false)
  store ptr getelementptr inbounds ({ [5 x ptr] }, ptr @_ZTVN5arrow8MapArrayE, i64 0, i32 0, i64 2), ptr %this, align 8
  %keys_ = getelementptr inbounds i8, ptr %this, i64 72
  tail call void @llvm.memset.p0.i64(ptr noundef nonnull align 8 dereferenceable(32) %keys_, i8 0, i64 32, i1 false)
  invoke void @_ZN5arrow8MapArray7SetDataERKSt10shared_ptrINS_9ArrayDataEE(ptr noundef nonnull align 8 dereferenceable(104) %this, ptr noundef nonnull align 8 dereferenceable(16) %data)
          to label %invoke.cont unwind label %lpad

invoke.cont:                                      ; preds = %entry
  ret void

lpad:                                             ; preds = %entry
  %0 = landingpad { ptr, i32 }
          cleanup
  %items_ = getelementptr inbounds i8, ptr %this, i64 88
  tail call void @_ZNSt10shared_ptrIN5arrow5ArrayEED2Ev(ptr noundef nonnull align 8 dereferenceable(16) %items_) #18
  tail call void @_ZNSt10shared_ptrIN5arrow5ArrayEED2Ev(ptr noundef nonnull align 8 dereferenceable(16) %keys_) #18
  tail call void @_ZN5arrow22VarLengthListLikeArrayINS_8ListTypeEED2Ev(ptr noundef nonnull align 8 dereferenceable(64) %this) #18
  resume { ptr, i32 } %0
}